; ModuleID = '16/296.c'
source_filename = "16/296.c"
target datalayout = "e-m:e-p270:32:32-p271:32:32-p272:64:64-i64:64-f80:128-n8:16:32:64-S128"
target triple = "x86_64-pc-linux-gnu"

@.str = private unnamed_addr constant [3 x i8] c"%s\00", align 1
@.str.1 = private unnamed_addr constant [3 x i8] c"%c\00", align 1

; Function Attrs: noinline nounwind uwtable
define dso_local i32 @main() #0 {
  %1 = alloca i32, align 4
  %2 = alloca [7 x i8], align 1
  %3 = alloca i8, align 1
  %4 = alloca i8, align 1
  store i32 0, i32* %1, align 4
  %5 = call i32 (i8*, ...) @__isoc99_scanf(i8* getelementptr inbounds ([3 x i8], [3 x i8]* @.str, i64 0, i64 0), [7 x i8]* %2)
  store i8 1, i8* %3, align 1
  br label %6

6:                                                ; preds = %15, %0
  %7 = load i8, i8* %3, align 1
  %8 = sext i8 %7 to i64
  %9 = getelementptr inbounds [7 x i8], [7 x i8]* %2, i64 0, i64 %8
  %10 = load i8, i8* %9, align 1
  %11 = sext i8 %10 to i32
  %12 = icmp ne i32 %11, 0
  br i1 %12, label %13, label %18

13:                                               ; preds = %6
  %14 = load i8, i8* %3, align 1
  store i8 %14, i8* %4, align 1
  br label %15

15:                                               ; preds = %13
  %16 = load i8, i8* %3, align 1
  %17 = add i8 %16, 1
  store i8 %17, i8* %3, align 1
  br label %6

18:                                               ; preds = %6
  %19 = load i8, i8* %4, align 1
  store i8 %19, i8* %3, align 1
  br label %20

20:                                               ; preds = %31, %18
  %21 = load i8, i8* %3, align 1
  %22 = sext i8 %21 to i32
  %23 = icmp sge i32 %22, 0
  br i1 %23, label %24, label %34

24:                                               ; preds = %20
  %25 = load i8, i8* %3, align 1
  %26 = sext i8 %25 to i64
  %27 = getelementptr inbounds [7 x i8], [7 x i8]* %2, i64 0, i64 %26
  %28 = load i8, i8* %27, align 1
  %29 = sext i8 %28 to i32
  %30 = call i32 (i8*, ...) @printf(i8* getelementptr inbounds ([3 x i8], [3 x i8]* @.str.1, i64 0, i64 0), i32 %29)
  br label %31

31:                                               ; preds = %24
  %32 = load i8, i8* %3, align 1
  %33 = add i8 %32, -1
  store i8 %33, i8* %3, align 1
  br label %20

34:                                               ; preds = %20
  ret i32 0
}

declare dso_local i32 @__isoc99_scanf(i8*, ...) #1

declare dso_local i32 @printf(i8*, ...) #1


!llvm.module.flags = !{!0}
!llvm.ident = !{!1}

!0 = !{i32 1, !"wchar_size", i32 4}
!1 = !{!"clang version 10.0.0-4ubuntu1 "}
