; ModuleID = 'source-C-CXX/15/296.c'
source_filename = "source-C-CXX/15/296.c"
target datalayout = "e-m:e-p270:32:32-p271:32:32-p272:64:64-i64:64-f80:128-n8:16:32:64-S128"
target triple = "x86_64-pc-linux-gnu"

@.str = private unnamed_addr constant [3 x i8] c"%s\00", align 1

; Function Attrs: nofree nounwind sspstrong uwtable
define dso_local i32 @main() local_unnamed_addr #0 {
  %1 = alloca [7 x i8], align 1
  %2 = getelementptr inbounds [7 x i8], [7 x i8]* %1, i64 0, i64 0
  call void @llvm.lifetime.start.p0i8(i64 7, i8* nonnull %2) #4
  %3 = call i32 (i8*, ...) @__isoc99_scanf(i8* getelementptr inbounds ([3 x i8], [3 x i8]* @.str, i64 0, i64 0), [7 x i8]* nonnull %1)
  br label %4

4:                                                ; preds = %4, %0
  %5 = phi i8 [ 1, %0 ], [ %11, %4 ]
  %6 = phi i8 [ undef, %0 ], [ %5, %4 ]
  %7 = sext i8 %5 to i64
  %8 = getelementptr inbounds [7 x i8], [7 x i8]* %1, i64 0, i64 %7
  %9 = load i8, i8* %8, align 1, !tbaa !5
  %10 = icmp eq i8 %9, 0
  %11 = add i8 %5, 1
  br i1 %10, label %12, label %4, !llvm.loop !8

12:                                               ; preds = %4
  %13 = icmp sgt i8 %6, -1
  br i1 %13, label %14, label %24

14:                                               ; preds = %12
  %15 = zext i8 %6 to i64
  br label %16

16:                                               ; preds = %14, %16
  %17 = phi i64 [ %15, %14 ], [ %23, %16 ]
  %18 = getelementptr inbounds [7 x i8], [7 x i8]* %1, i64 0, i64 %17
  %19 = load i8, i8* %18, align 1, !tbaa !5
  %20 = sext i8 %19 to i32
  %21 = call i32 @putchar(i32 %20)
  %22 = icmp sgt i64 %17, 0
  %23 = add nsw i64 %17, -1
  br i1 %22, label %16, label %24, !llvm.loop !10

24:                                               ; preds = %16, %12
  call void @llvm.lifetime.end.p0i8(i64 7, i8* nonnull %2) #4
  ret i32 0
}

; Function Attrs: argmemonly mustprogress nofree nosync nounwind willreturn
declare void @llvm.lifetime.start.p0i8(i64 immarg, i8* nocapture) #1

; Function Attrs: nofree nounwind
declare noundef i32 @__isoc99_scanf(i8* nocapture noundef readonly, ...) local_unnamed_addr #2

; Function Attrs: argmemonly mustprogress nofree nosync nounwind willreturn
declare void @llvm.lifetime.end.p0i8(i64 immarg, i8* nocapture) #1

; Function Attrs: nofree nounwind
declare noundef i32 @putchar(i32 noundef) local_unnamed_addr #3


!llvm.module.flags = !{!0, !1, !2, !3}
!llvm.ident = !{!4}

!0 = !{i32 1, !"wchar_size", i32 4}
!1 = !{i32 7, !"PIC Level", i32 2}
!2 = !{i32 7, !"PIE Level", i32 2}
!3 = !{i32 7, !"uwtable", i32 1}
!4 = !{!"clang version 13.0.0"}
!5 = !{!6, !6, i64 0}
!6 = !{!"omnipotent char", !7, i64 0}
!7 = !{!"Simple C/C++ TBAA"}
!8 = distinct !{!8, !9}
!9 = !{!"llvm.loop.mustprogress"}
!10 = distinct !{!10, !9}
